target datalayout = "e-m:e-p270:32:32-p271:32:32-p272:64:64-i64:64-i128:128-f80:128-n8:16:32:64-S128"
target triple = "x86_64-pc-linux-gnu"

%struct.burst_buffer_info_msg_t = type { ptr, i32 }
%struct.burst_buffer_info_t = type { ptr, ptr, ptr, ptr, ptr, i32, ptr, ptr, i64, i32, ptr, ptr, i32, i32, i32, i32, ptr, ptr, ptr, ptr, i64, i64, i64, i32, i32, ptr, i32, ptr }
%struct.burst_buffer_pool_t = type { i64, ptr, i64, i64, i64 }
%struct.burst_buffer_resv_t = type { ptr, i32, i32, i64, i32, ptr, ptr, ptr, ptr, i64, i16, i32 }

; Function Attrs: nounwind uwtable
define dso_local void @slurm_free_burst_buffer_info_msg(ptr noundef %0) #0 {
  %2 = alloca ptr, align 8
  %3 = alloca i32, align 4
  %4 = alloca i32, align 4
  %5 = alloca ptr, align 8
  %6 = alloca ptr, align 8
  %7 = alloca ptr, align 8
  %8 = alloca i32, align 4
  store ptr %0, ptr %2, align 8
  call void @llvm.lifetime.start.p0(i64 4, ptr %3) #11
  call void @llvm.lifetime.start.p0(i64 4, ptr %4) #11
  call void @llvm.lifetime.start.p0(i64 8, ptr %5) #11
  call void @llvm.lifetime.start.p0(i64 8, ptr %6) #11
  call void @llvm.lifetime.start.p0(i64 8, ptr %7) #11
  %9 = load ptr, ptr %2, align 8
  %10 = icmp ne ptr %9, null
  br i1 %10, label %12, label %11

11:                                               ; preds = %1
  store i32 1, ptr %8, align 4
  br label %120

12:                                               ; preds = %1
  store i32 0, ptr %3, align 4
  %13 = load ptr, ptr %2, align 8
  %14 = getelementptr inbounds nuw %struct.burst_buffer_info_msg_t, ptr %13, i32 0, i32 0
  %15 = load ptr, ptr %14, align 8
  store ptr %15, ptr %5, align 8
  br label %16

16:                                               ; preds = %112, %12
  %17 = load i32, ptr %3, align 4
  %18 = load ptr, ptr %2, align 8
  %19 = getelementptr inbounds nuw %struct.burst_buffer_info_msg_t, ptr %18, i32 0, i32 1
  %20 = load i32, ptr %19, align 8
  %21 = icmp ult i32 %17, %20
  br i1 %21, label %22, label %25

22:                                               ; preds = %16
  %23 = load ptr, ptr %5, align 8
  %24 = icmp ne ptr %23, null
  br label %25

25:                                               ; preds = %22, %16
  %26 = phi i1 [ false, %16 ], [ %24, %22 ]
  br i1 %26, label %27, label %117

27:                                               ; preds = %25
  %28 = load ptr, ptr %5, align 8
  %29 = getelementptr inbounds nuw %struct.burst_buffer_info_t, ptr %28, i32 0, i32 0
  call void @slurm_xfree(ptr noundef %29)
  %30 = load ptr, ptr %5, align 8
  %31 = getelementptr inbounds nuw %struct.burst_buffer_info_t, ptr %30, i32 0, i32 1
  call void @slurm_xfree(ptr noundef %31)
  %32 = load ptr, ptr %5, align 8
  %33 = getelementptr inbounds nuw %struct.burst_buffer_info_t, ptr %32, i32 0, i32 2
  call void @slurm_xfree(ptr noundef %33)
  %34 = load ptr, ptr %5, align 8
  %35 = getelementptr inbounds nuw %struct.burst_buffer_info_t, ptr %34, i32 0, i32 3
  call void @slurm_xfree(ptr noundef %35)
  %36 = load ptr, ptr %5, align 8
  %37 = getelementptr inbounds nuw %struct.burst_buffer_info_t, ptr %36, i32 0, i32 4
  call void @slurm_xfree(ptr noundef %37)
  %38 = load ptr, ptr %5, align 8
  %39 = getelementptr inbounds nuw %struct.burst_buffer_info_t, ptr %38, i32 0, i32 6
  call void @slurm_xfree(ptr noundef %39)
  %40 = load ptr, ptr %5, align 8
  %41 = getelementptr inbounds nuw %struct.burst_buffer_info_t, ptr %40, i32 0, i32 7
  call void @slurm_xfree(ptr noundef %41)
  %42 = load ptr, ptr %5, align 8
  %43 = getelementptr inbounds nuw %struct.burst_buffer_info_t, ptr %42, i32 0, i32 11
  call void @slurm_xfree(ptr noundef %43)
  store i32 0, ptr %4, align 4
  %44 = load ptr, ptr %5, align 8
  %45 = getelementptr inbounds nuw %struct.burst_buffer_info_t, ptr %44, i32 0, i32 10
  %46 = load ptr, ptr %45, align 8
  store ptr %46, ptr %7, align 8
  br label %47

47:                                               ; preds = %61, %27
  %48 = load i32, ptr %4, align 4
  %49 = load ptr, ptr %5, align 8
  %50 = getelementptr inbounds nuw %struct.burst_buffer_info_t, ptr %49, i32 0, i32 9
  %51 = load i32, ptr %50, align 8
  %52 = icmp ult i32 %48, %51
  br i1 %52, label %53, label %56

53:                                               ; preds = %47
  %54 = load ptr, ptr %7, align 8
  %55 = icmp ne ptr %54, null
  br label %56

56:                                               ; preds = %53, %47
  %57 = phi i1 [ false, %47 ], [ %55, %53 ]
  br i1 %57, label %58, label %66

58:                                               ; preds = %56
  %59 = load ptr, ptr %7, align 8
  %60 = getelementptr inbounds nuw %struct.burst_buffer_pool_t, ptr %59, i32 0, i32 1
  call void @slurm_xfree(ptr noundef %60)
  br label %61

61:                                               ; preds = %58
  %62 = load i32, ptr %4, align 4
  %63 = add nsw i32 %62, 1
  store i32 %63, ptr %4, align 4
  %64 = load ptr, ptr %7, align 8
  %65 = getelementptr inbounds nuw %struct.burst_buffer_pool_t, ptr %64, i32 1
  store ptr %65, ptr %7, align 8
  br label %47, !llvm.loop !60

66:                                               ; preds = %56
  %67 = load ptr, ptr %5, align 8
  %68 = getelementptr inbounds nuw %struct.burst_buffer_info_t, ptr %67, i32 0, i32 10
  call void @slurm_xfree(ptr noundef %68)
  %69 = load ptr, ptr %5, align 8
  %70 = getelementptr inbounds nuw %struct.burst_buffer_info_t, ptr %69, i32 0, i32 16
  call void @slurm_xfree(ptr noundef %70)
  %71 = load ptr, ptr %5, align 8
  %72 = getelementptr inbounds nuw %struct.burst_buffer_info_t, ptr %71, i32 0, i32 17
  call void @slurm_xfree(ptr noundef %72)
  %73 = load ptr, ptr %5, align 8
  %74 = getelementptr inbounds nuw %struct.burst_buffer_info_t, ptr %73, i32 0, i32 18
  call void @slurm_xfree(ptr noundef %74)
  %75 = load ptr, ptr %5, align 8
  %76 = getelementptr inbounds nuw %struct.burst_buffer_info_t, ptr %75, i32 0, i32 19
  call void @slurm_xfree(ptr noundef %76)
  store i32 0, ptr %4, align 4
  %77 = load ptr, ptr %5, align 8
  %78 = getelementptr inbounds nuw %struct.burst_buffer_info_t, ptr %77, i32 0, i32 25
  %79 = load ptr, ptr %78, align 8
  store ptr %79, ptr %6, align 8
  br label %80

80:                                               ; preds = %102, %66
  %81 = load i32, ptr %4, align 4
  %82 = load ptr, ptr %5, align 8
  %83 = getelementptr inbounds nuw %struct.burst_buffer_info_t, ptr %82, i32 0, i32 24
  %84 = load i32, ptr %83, align 4
  %85 = icmp ult i32 %81, %84
  br i1 %85, label %86, label %89

86:                                               ; preds = %80
  %87 = load ptr, ptr %6, align 8
  %88 = icmp ne ptr %87, null
  br label %89

89:                                               ; preds = %86, %80
  %90 = phi i1 [ false, %80 ], [ %88, %86 ]
  br i1 %90, label %91, label %107

91:                                               ; preds = %89
  %92 = load ptr, ptr %6, align 8
  %93 = getelementptr inbounds nuw %struct.burst_buffer_resv_t, ptr %92, i32 0, i32 0
  call void @slurm_xfree(ptr noundef %93)
  %94 = load ptr, ptr %6, align 8
  %95 = getelementptr inbounds nuw %struct.burst_buffer_resv_t, ptr %94, i32 0, i32 5
  call void @slurm_xfree(ptr noundef %95)
  %96 = load ptr, ptr %6, align 8
  %97 = getelementptr inbounds nuw %struct.burst_buffer_resv_t, ptr %96, i32 0, i32 6
  call void @slurm_xfree(ptr noundef %97)
  %98 = load ptr, ptr %6, align 8
  %99 = getelementptr inbounds nuw %struct.burst_buffer_resv_t, ptr %98, i32 0, i32 7
  call void @slurm_xfree(ptr noundef %99)
  %100 = load ptr, ptr %6, align 8
  %101 = getelementptr inbounds nuw %struct.burst_buffer_resv_t, ptr %100, i32 0, i32 8
  call void @slurm_xfree(ptr noundef %101)
  br label %102

102:                                              ; preds = %91
  %103 = load i32, ptr %4, align 4
  %104 = add nsw i32 %103, 1
  store i32 %104, ptr %4, align 4
  %105 = load ptr, ptr %6, align 8
  %106 = getelementptr inbounds nuw %struct.burst_buffer_resv_t, ptr %105, i32 1
  store ptr %106, ptr %6, align 8
  br label %80, !llvm.loop !61

107:                                              ; preds = %89
  %108 = load ptr, ptr %5, align 8
  %109 = getelementptr inbounds nuw %struct.burst_buffer_info_t, ptr %108, i32 0, i32 25
  call void @slurm_xfree(ptr noundef %109)
  %110 = load ptr, ptr %5, align 8
  %111 = getelementptr inbounds nuw %struct.burst_buffer_info_t, ptr %110, i32 0, i32 27
  call void @slurm_xfree(ptr noundef %111)
  br label %112

112:                                              ; preds = %107
  %113 = load i32, ptr %3, align 4
  %114 = add nsw i32 %113, 1
  store i32 %114, ptr %3, align 4
  %115 = load ptr, ptr %5, align 8
  %116 = getelementptr inbounds nuw %struct.burst_buffer_info_t, ptr %115, i32 1
  store ptr %116, ptr %5, align 8
  br label %16, !llvm.loop !62

117:                                              ; preds = %25
  %118 = load ptr, ptr %2, align 8
  %119 = getelementptr inbounds nuw %struct.burst_buffer_info_msg_t, ptr %118, i32 0, i32 0
  call void @slurm_xfree(ptr noundef %119)
  call void @slurm_xfree(ptr noundef %2)
  store i32 0, ptr %8, align 4
  br label %120

120:                                              ; preds = %117, %11
  call void @llvm.lifetime.end.p0(i64 8, ptr %7) #11
  call void @llvm.lifetime.end.p0(i64 8, ptr %6) #11
  call void @llvm.lifetime.end.p0(i64 8, ptr %5) #11
  call void @llvm.lifetime.end.p0(i64 4, ptr %4) #11
  call void @llvm.lifetime.end.p0(i64 4, ptr %3) #11
  %121 = load i32, ptr %8, align 4
  switch i32 %121, label %123 [
    i32 0, label %122
    i32 1, label %122
  ]

122:                                              ; preds = %120, %120
  ret void

123:                                              ; preds = %120
  unreachable
}