; Function Attrs: nounwind uwtable
define dso_local void @slurm_free_burst_buffer_info_msg(ptr noundef %0) local_unnamed_addr #1 {
  %2 = alloca ptr, align 8
  store ptr %0, ptr %2, align 8
  %.not = icmp eq ptr %0, null
  br i1 %.not, label %53, label %3

3:                                                ; preds = %1
  %4 = load ptr, ptr %0, align 8
  %5 = getelementptr inbounds nuw i8, ptr %0, i64 8
  %6 = load i32, ptr %5, align 8
  %7 = icmp ne i32 %6, 0
  %8 = icmp ne ptr %4, null
  %9 = select i1 %7, i1 %8, i1 false
  br i1 %9, label %.lr.ph51, label %._crit_edge52

.lr.ph51:                                         ; preds = %3, %._crit_edge47
  %.03749 = phi ptr [ %50, %._crit_edge47 ], [ %4, %3 ]
  %.03948 = phi i32 [ %49, %._crit_edge47 ], [ 0, %3 ]
  tail call void @slurm_xfree(ptr noundef nonnull %.03749) #24
  %10 = getelementptr inbounds nuw i8, ptr %.03749, i64 8
  tail call void @slurm_xfree(ptr noundef nonnull %10) #24
  %11 = getelementptr inbounds nuw i8, ptr %.03749, i64 16
  tail call void @slurm_xfree(ptr noundef nonnull %11) #24
  %12 = getelementptr inbounds nuw i8, ptr %.03749, i64 24
  tail call void @slurm_xfree(ptr noundef nonnull %12) #24
  %13 = getelementptr inbounds nuw i8, ptr %.03749, i64 32
  tail call void @slurm_xfree(ptr noundef nonnull %13) #24
  %14 = getelementptr inbounds nuw i8, ptr %.03749, i64 48
  tail call void @slurm_xfree(ptr noundef nonnull %14) #24
  %15 = getelementptr inbounds nuw i8, ptr %.03749, i64 56
  tail call void @slurm_xfree(ptr noundef nonnull %15) #24
  %16 = getelementptr inbounds nuw i8, ptr %.03749, i64 88
  tail call void @slurm_xfree(ptr noundef nonnull %16) #24
  %17 = getelementptr inbounds nuw i8, ptr %.03749, i64 80
  %18 = load ptr, ptr %17, align 8
  %19 = getelementptr inbounds nuw i8, ptr %.03749, i64 72
  %20 = load i32, ptr %19, align 8
  %21 = icmp ne i32 %20, 0
  %22 = icmp ne ptr %18, null
  %23 = select i1 %21, i1 %22, i1 false
  br i1 %23, label %.lr.ph, label %._crit_edge

.lr.ph:                                           ; preds = %.lr.ph51, %.lr.ph
  %.042 = phi ptr [ %26, %.lr.ph ], [ %18, %.lr.ph51 ]
  %.03841 = phi i32 [ %25, %.lr.ph ], [ 0, %.lr.ph51 ]
  %24 = getelementptr inbounds nuw i8, ptr %.042, i64 8
  tail call void @slurm_xfree(ptr noundef nonnull %24) #24
  %25 = add nuw nsw i32 %.03841, 1
  %26 = getelementptr inbounds nuw i8, ptr %.042, i64 40
  %27 = load i32, ptr %19, align 8
  %28 = icmp ult i32 %25, %27
  br i1 %28, label %.lr.ph, label %._crit_edge, !llvm.loop !61

._crit_edge:                                      ; preds = %.lr.ph, %.lr.ph51
  tail call void @slurm_xfree(ptr noundef nonnull %17) #24
  %29 = getelementptr inbounds nuw i8, ptr %.03749, i64 112
  tail call void @slurm_xfree(ptr noundef nonnull %29) #24
  %30 = getelementptr inbounds nuw i8, ptr %.03749, i64 120
  tail call void @slurm_xfree(ptr noundef nonnull %30) #24
  %31 = getelementptr inbounds nuw i8, ptr %.03749, i64 128
  tail call void @slurm_xfree(ptr noundef nonnull %31) #24
  %32 = getelementptr inbounds nuw i8, ptr %.03749, i64 136
  tail call void @slurm_xfree(ptr noundef nonnull %32) #24
  %33 = getelementptr inbounds nuw i8, ptr %.03749, i64 176
  %34 = load ptr, ptr %33, align 8
  %35 = getelementptr inbounds nuw i8, ptr %.03749, i64 172
  %36 = load i32, ptr %35, align 4
  %37 = icmp ne i32 %36, 0
  %38 = icmp ne ptr %34, null
  %39 = select i1 %37, i1 %38, i1 false
  br i1 %39, label %.lr.ph46, label %._crit_edge47

.lr.ph46:                                         ; preds = %._crit_edge, %.lr.ph46
  %.03644 = phi ptr [ %45, %.lr.ph46 ], [ %34, %._crit_edge ]
  %.143 = phi i32 [ %44, %.lr.ph46 ], [ 0, %._crit_edge ]
  tail call void @slurm_xfree(ptr noundef nonnull %.03644) #24
  %40 = getelementptr inbounds nuw i8, ptr %.03644, i64 32
  tail call void @slurm_xfree(ptr noundef nonnull %40) #24
  %41 = getelementptr inbounds nuw i8, ptr %.03644, i64 40
  tail call void @slurm_xfree(ptr noundef nonnull %41) #24
  %42 = getelementptr inbounds nuw i8, ptr %.03644, i64 48
  tail call void @slurm_xfree(ptr noundef nonnull %42) #24
  %43 = getelementptr inbounds nuw i8, ptr %.03644, i64 56
  tail call void @slurm_xfree(ptr noundef nonnull %43) #24
  %44 = add nuw nsw i32 %.143, 1
  %45 = getelementptr inbounds nuw i8, ptr %.03644, i64 80
  %46 = load i32, ptr %35, align 4
  %47 = icmp ult i32 %44, %46
  br i1 %47, label %.lr.ph46, label %._crit_edge47, !llvm.loop !62

._crit_edge47:                                    ; preds = %.lr.ph46, %._crit_edge
  tail call void @slurm_xfree(ptr noundef nonnull %33) #24
  %48 = getelementptr inbounds nuw i8, ptr %.03749, i64 192
  tail call void @slurm_xfree(ptr noundef nonnull %48) #24
  %49 = add nuw nsw i32 %.03948, 1
  %50 = getelementptr inbounds nuw i8, ptr %.03749, i64 200
  %51 = load i32, ptr %5, align 8
  %52 = icmp ult i32 %49, %51
  br i1 %52, label %.lr.ph51, label %._crit_edge52, !llvm.loop !63

._crit_edge52:                                    ; preds = %._crit_edge47, %3
  tail call void @slurm_xfree(ptr noundef nonnull %0) #24
  call void @slurm_xfree(ptr noundef nonnull %2) #24
  br label %53

53:                                               ; preds = %1, %._crit_edge52
  ret void
}